; Function Attrs: mustprogress nofree nounwind willreturn memory(read) uwtable
define dso_local i64 @_ZNK5clang6Parser18ParsedTemplateInfo14getSourceRangeEv(ptr nocapture noundef nonnull readonly align 8 dereferenceable(25) %0) local_unnamed_addr #4 align 2 {
  %2 = getelementptr inbounds nuw i8, ptr %0, i64 8
  %3 = load ptr, ptr %2, align 8
  %.not = icmp eq ptr %3, null
  br i1 %.not, label %9, label %4

4:                                                ; preds = %1
  %5 = load ptr, ptr %3, align 8
  %6 = tail call noundef i64 @_ZNK4llvm15SmallVectorBaseIjE4sizeEv(ptr noundef nonnull align 8 dereferenceable(16) %3) #16
  %7 = trunc i64 %6 to i32
  %8 = tail call i64 @_ZN5clang22getTemplateParamsRangeEPKPKNS_21TemplateParameterListEj(ptr noundef %5, i32 noundef %7) #16
  %.sroa.0.0.extract.trunc = trunc i64 %8 to i32
  %.sroa.4.0.extract.shift = lshr i64 %8, 32
  %.sroa.4.0.extract.trunc = trunc nuw i64 %.sroa.4.0.extract.shift to i32
  br label %13

9:                                                ; preds = %1
  %10 = getelementptr inbounds nuw i8, ptr %0, i64 20
  %.sroa.01.0.copyload = load i32, ptr %10, align 4
  %11 = getelementptr inbounds nuw i8, ptr %0, i64 16
  %12 = load i32, ptr %11, align 8
  %.not2 = icmp eq i32 %12, 0
  %spec.select = select i1 %.not2, i32 %.sroa.01.0.copyload, i32 %12
  br label %13

13:                                               ; preds = %9, %4
  %.sroa.4.0 = phi i32 [ %.sroa.4.0.extract.trunc, %4 ], [ %.sroa.01.0.copyload, %9 ]
  %.sroa.0.0 = phi i32 [ %.sroa.0.0.extract.trunc, %4 ], [ %spec.select, %9 ]
  %.sroa.4.0.insert.ext = zext i32 %.sroa.4.0 to i64
  %.sroa.4.0.insert.shift = shl nuw i64 %.sroa.4.0.insert.ext, 32
  %.sroa.0.0.insert.ext = zext i32 %.sroa.0.0 to i64
  %.sroa.0.0.insert.insert = or disjoint i64 %.sroa.4.0.insert.shift, %.sroa.0.0.insert.ext
  ret i64 %.sroa.0.0.insert.insert
}